target datalayout = "e-m:e-p270:32:32-p271:32:32-p272:64:64-i64:64-i128:128-f80:128-n8:16:32:64-S128"
target triple = "x86_64-unknown-linux-gnu"

%struct.dtoa_alloc = type { i32, i32, ptr, [8 x ptr], [1 x double] }
%struct.Bigint = type { ptr, i32, i32, i32, i32, [1 x i32] }

; Function Attrs: nounwind uwtable
define internal ptr @Balloc(ptr noundef %dalloc, i32 noundef %k) #0 {
entry:
  %dalloc.addr = alloca ptr, align 8
  %k.addr = alloca i32, align 4
  %x = alloca i32, align 4
  %rv = alloca ptr, align 8
  %len = alloca i32, align 4
  store ptr %dalloc, ptr %dalloc.addr, align 8
  store i32 %k, ptr %k.addr, align 4
  %0 = load i32, ptr %k.addr, align 4
  %cmp = icmp sle i32 %0, 7
  br i1 %cmp, label %land.lhs.true, label %if.else

land.lhs.true:                                    ; preds = %entry
  %1 = load ptr, ptr %dalloc.addr, align 8
  %freelist = getelementptr inbounds %struct.dtoa_alloc, ptr %1, i32 0, i32 3
  %2 = load i32, ptr %k.addr, align 4
  %idxprom = sext i32 %2 to i64
  %arrayidx = getelementptr inbounds [8 x ptr], ptr %freelist, i64 0, i64 %idxprom
  %3 = load ptr, ptr %arrayidx, align 8
  store ptr %3, ptr %rv, align 8
  %tobool = icmp ne ptr %3, null
  br i1 %tobool, label %if.then, label %if.else

if.then:                                          ; preds = %land.lhs.true
  %4 = load ptr, ptr %rv, align 8
  %next = getelementptr inbounds %struct.Bigint, ptr %4, i32 0, i32 0
  %5 = load ptr, ptr %next, align 8
  %6 = load ptr, ptr %dalloc.addr, align 8
  %freelist1 = getelementptr inbounds %struct.dtoa_alloc, ptr %6, i32 0, i32 3
  %7 = load i32, ptr %k.addr, align 4
  %idxprom2 = sext i32 %7 to i64
  %arrayidx3 = getelementptr inbounds [8 x ptr], ptr %freelist1, i64 0, i64 %idxprom2
  store ptr %5, ptr %arrayidx3, align 8
  br label %if.end22

if.else:                                          ; preds = %land.lhs.true, %entry
  %8 = load i32, ptr %k.addr, align 4
  %shl = shl i32 1, %8
  store i32 %shl, ptr %x, align 4
  %9 = load i32, ptr %x, align 4
  %sub = sub nsw i32 %9, 1
  %conv = sext i32 %sub to i64
  %mul = mul i64 %conv, 4
  %add = add i64 32, %mul
  %add4 = add i64 %add, 8
  %sub5 = sub i64 %add4, 1
  %div = udiv i64 %sub5, 8
  %conv6 = trunc i64 %div to i32
  store i32 %conv6, ptr %len, align 4
  %10 = load i32, ptr %k.addr, align 4
  %cmp7 = icmp sle i32 %10, 7
  br i1 %cmp7, label %land.lhs.true9, label %if.else18

land.lhs.true9:                                   ; preds = %if.else
  %11 = load ptr, ptr %dalloc.addr, align 8
  %pmem_next = getelementptr inbounds %struct.dtoa_alloc, ptr %11, i32 0, i32 2
  %12 = load ptr, ptr %pmem_next, align 8
  %13 = load ptr, ptr %dalloc.addr, align 8
  %private_mem = getelementptr inbounds %struct.dtoa_alloc, ptr %13, i32 0, i32 4
  %arraydecay = getelementptr inbounds [1 x double], ptr %private_mem, i64 0, i64 0
  %sub.ptr.lhs.cast = ptrtoint ptr %12 to i64
  %sub.ptr.rhs.cast = ptrtoint ptr %arraydecay to i64
  %sub.ptr.sub = sub i64 %sub.ptr.lhs.cast, %sub.ptr.rhs.cast
  %sub.ptr.div = sdiv exact i64 %sub.ptr.sub, 8
  %14 = load i32, ptr %len, align 4
  %conv10 = zext i32 %14 to i64
  %add11 = add nsw i64 %sub.ptr.div, %conv10
  %15 = load ptr, ptr %dalloc.addr, align 8
  %pmem_len = getelementptr inbounds %struct.dtoa_alloc, ptr %15, i32 0, i32 0
  %16 = load i32, ptr %pmem_len, align 8
  %conv12 = sext i32 %16 to i64
  %cmp13 = icmp sle i64 %add11, %conv12
  br i1 %cmp13, label %if.then15, label %if.else18

if.then15:                                        ; preds = %land.lhs.true9
  %17 = load ptr, ptr %dalloc.addr, align 8
  %pmem_next16 = getelementptr inbounds %struct.dtoa_alloc, ptr %17, i32 0, i32 2
  %18 = load ptr, ptr %pmem_next16, align 8
  store ptr %18, ptr %rv, align 8
  %19 = load i32, ptr %len, align 4
  %20 = load ptr, ptr %dalloc.addr, align 8
  %pmem_next17 = getelementptr inbounds %struct.dtoa_alloc, ptr %20, i32 0, i32 2
  %21 = load ptr, ptr %pmem_next17, align 8
  %idx.ext = zext i32 %19 to i64
  %add.ptr = getelementptr inbounds double, ptr %21, i64 %idx.ext
  store ptr %add.ptr, ptr %pmem_next17, align 8
  br label %if.end

if.else18:                                        ; preds = %land.lhs.true9, %if.else
  %22 = load i32, ptr %len, align 4
  %conv19 = zext i32 %22 to i64
  %mul20 = mul i64 %conv19, 8
  %call = call noalias ptr @malloc(i64 noundef %mul20) #11
  store ptr %call, ptr %rv, align 8
  %23 = load ptr, ptr %dalloc.addr, align 8
  %used_heap = getelementptr inbounds %struct.dtoa_alloc, ptr %23, i32 0, i32 1
  store i32 1, ptr %used_heap, align 4
  br label %if.end

if.end:                                           ; preds = %if.else18, %if.then15
  %24 = load i32, ptr %k.addr, align 4
  %25 = load ptr, ptr %rv, align 8
  %k21 = getelementptr inbounds %struct.Bigint, ptr %25, i32 0, i32 1
  store i32 %24, ptr %k21, align 8
  %26 = load i32, ptr %x, align 4
  %27 = load ptr, ptr %rv, align 8
  %maxwds = getelementptr inbounds %struct.Bigint, ptr %27, i32 0, i32 2
  store i32 %26, ptr %maxwds, align 4
  br label %if.end22

if.end22:                                         ; preds = %if.end, %if.then
  %28 = load ptr, ptr %rv, align 8
  %wds = getelementptr inbounds %struct.Bigint, ptr %28, i32 0, i32 4
  store i32 0, ptr %wds, align 4
  %29 = load ptr, ptr %rv, align 8
  %sign = getelementptr inbounds %struct.Bigint, ptr %29, i32 0, i32 3
  store i32 0, ptr %sign, align 8
  %30 = load ptr, ptr %rv, align 8
  ret ptr %30
}

; Function Attrs: nounwind uwtable
define internal ptr @mult(ptr noundef %dalloc, ptr noundef %a, ptr noundef %b) #0 {
entry:
  %dalloc.addr = alloca ptr, align 8
  %a.addr = alloca ptr, align 8
  %b.addr = alloca ptr, align 8
  %c = alloca ptr, align 8
  %k = alloca i32, align 4
  %wa = alloca i32, align 4
  %wb = alloca i32, align 4
  %wc = alloca i32, align 4
  %x = alloca ptr, align 8
  %xa = alloca ptr, align 8
  %xae = alloca ptr, align 8
  %xb = alloca ptr, align 8
  %xbe = alloca ptr, align 8
  %xc = alloca ptr, align 8
  %xc0 = alloca ptr, align 8
  %y = alloca i32, align 4
  %carry = alloca i64, align 8
  %z = alloca i64, align 8
  store ptr %dalloc, ptr %dalloc.addr, align 8
  store ptr %a, ptr %a.addr, align 8
  store ptr %b, ptr %b.addr, align 8
  %0 = load ptr, ptr %a.addr, align 8
  %wds = getelementptr inbounds %struct.Bigint, ptr %0, i32 0, i32 4
  %1 = load i32, ptr %wds, align 4
  %2 = load ptr, ptr %b.addr, align 8
  %wds1 = getelementptr inbounds %struct.Bigint, ptr %2, i32 0, i32 4
  %3 = load i32, ptr %wds1, align 4
  %cmp = icmp slt i32 %1, %3
  br i1 %cmp, label %if.then, label %if.end

if.then:                                          ; preds = %entry
  %4 = load ptr, ptr %a.addr, align 8
  store ptr %4, ptr %c, align 8
  %5 = load ptr, ptr %b.addr, align 8
  store ptr %5, ptr %a.addr, align 8
  %6 = load ptr, ptr %c, align 8
  store ptr %6, ptr %b.addr, align 8
  br label %if.end

if.end:                                           ; preds = %if.then, %entry
  %7 = load ptr, ptr %a.addr, align 8
  %k2 = getelementptr inbounds %struct.Bigint, ptr %7, i32 0, i32 1
  %8 = load i32, ptr %k2, align 8
  store i32 %8, ptr %k, align 4
  %9 = load ptr, ptr %a.addr, align 8
  %wds3 = getelementptr inbounds %struct.Bigint, ptr %9, i32 0, i32 4
  %10 = load i32, ptr %wds3, align 4
  store i32 %10, ptr %wa, align 4
  %11 = load ptr, ptr %b.addr, align 8
  %wds4 = getelementptr inbounds %struct.Bigint, ptr %11, i32 0, i32 4
  %12 = load i32, ptr %wds4, align 4
  store i32 %12, ptr %wb, align 4
  %13 = load i32, ptr %wa, align 4
  %14 = load i32, ptr %wb, align 4
  %add = add nsw i32 %13, %14
  store i32 %add, ptr %wc, align 4
  %15 = load i32, ptr %wc, align 4
  %16 = load ptr, ptr %a.addr, align 8
  %maxwds = getelementptr inbounds %struct.Bigint, ptr %16, i32 0, i32 2
  %17 = load i32, ptr %maxwds, align 4
  %cmp5 = icmp sgt i32 %15, %17
  br i1 %cmp5, label %if.then6, label %if.end7

if.then6:                                         ; preds = %if.end
  %18 = load i32, ptr %k, align 4
  %inc = add nsw i32 %18, 1
  store i32 %inc, ptr %k, align 4
  br label %if.end7

if.end7:                                          ; preds = %if.then6, %if.end
  %19 = load ptr, ptr %dalloc.addr, align 8
  %20 = load i32, ptr %k, align 4
  %call = call ptr @Balloc(ptr noundef %19, i32 noundef %20)
  store ptr %call, ptr %c, align 8
  %21 = load ptr, ptr %c, align 8
  %x8 = getelementptr inbounds %struct.Bigint, ptr %21, i32 0, i32 5
  %arraydecay = getelementptr inbounds [1 x i32], ptr %x8, i64 0, i64 0
  store ptr %arraydecay, ptr %x, align 8
  %22 = load ptr, ptr %x, align 8
  %23 = load i32, ptr %wc, align 4
  %idx.ext = sext i32 %23 to i64
  %add.ptr = getelementptr inbounds i32, ptr %22, i64 %idx.ext
  store ptr %add.ptr, ptr %xa, align 8
  br label %for.cond

for.cond:                                         ; preds = %for.inc, %if.end7
  %24 = load ptr, ptr %x, align 8
  %25 = load ptr, ptr %xa, align 8
  %cmp9 = icmp ult ptr %24, %25
  br i1 %cmp9, label %for.body, label %for.end

for.body:                                         ; preds = %for.cond
  %26 = load ptr, ptr %x, align 8
  store i32 0, ptr %26, align 4
  br label %for.inc

for.inc:                                          ; preds = %for.body
  %27 = load ptr, ptr %x, align 8
  %incdec.ptr = getelementptr inbounds i32, ptr %27, i32 1
  store ptr %incdec.ptr, ptr %x, align 8
  br label %for.cond, !llvm.loop !28

for.end:                                          ; preds = %for.cond
  %28 = load ptr, ptr %a.addr, align 8
  %x10 = getelementptr inbounds %struct.Bigint, ptr %28, i32 0, i32 5
  %arraydecay11 = getelementptr inbounds [1 x i32], ptr %x10, i64 0, i64 0
  store ptr %arraydecay11, ptr %xa, align 8
  %29 = load ptr, ptr %xa, align 8
  %30 = load i32, ptr %wa, align 4
  %idx.ext12 = sext i32 %30 to i64
  %add.ptr13 = getelementptr inbounds i32, ptr %29, i64 %idx.ext12
  store ptr %add.ptr13, ptr %xae, align 8
  %31 = load ptr, ptr %b.addr, align 8
  %x14 = getelementptr inbounds %struct.Bigint, ptr %31, i32 0, i32 5
  %arraydecay15 = getelementptr inbounds [1 x i32], ptr %x14, i64 0, i64 0
  store ptr %arraydecay15, ptr %xb, align 8
  %32 = load ptr, ptr %xb, align 8
  %33 = load i32, ptr %wb, align 4
  %idx.ext16 = sext i32 %33 to i64
  %add.ptr17 = getelementptr inbounds i32, ptr %32, i64 %idx.ext16
  store ptr %add.ptr17, ptr %xbe, align 8
  %34 = load ptr, ptr %c, align 8
  %x18 = getelementptr inbounds %struct.Bigint, ptr %34, i32 0, i32 5
  %arraydecay19 = getelementptr inbounds [1 x i32], ptr %x18, i64 0, i64 0
  store ptr %arraydecay19, ptr %xc0, align 8
  br label %for.cond20

for.cond20:                                       ; preds = %for.inc36, %for.end
  %35 = load ptr, ptr %xb, align 8
  %36 = load ptr, ptr %xbe, align 8
  %cmp21 = icmp ult ptr %35, %36
  br i1 %cmp21, label %for.body22, label %for.end38

for.body22:                                       ; preds = %for.cond20
  %37 = load ptr, ptr %xb, align 8
  %incdec.ptr23 = getelementptr inbounds i32, ptr %37, i32 1
  store ptr %incdec.ptr23, ptr %xb, align 8
  %38 = load i32, ptr %37, align 4
  store i32 %38, ptr %y, align 4
  %tobool = icmp ne i32 %38, 0
  br i1 %tobool, label %if.then24, label %if.end35

if.then24:                                        ; preds = %for.body22
  %39 = load ptr, ptr %xa, align 8
  store ptr %39, ptr %x, align 8
  %40 = load ptr, ptr %xc0, align 8
  store ptr %40, ptr %xc, align 8
  store i64 0, ptr %carry, align 8
  br label %do.body

do.body:                                          ; preds = %do.cond, %if.then24
  %41 = load ptr, ptr %x, align 8
  %incdec.ptr25 = getelementptr inbounds i32, ptr %41, i32 1
  store ptr %incdec.ptr25, ptr %x, align 8
  %42 = load i32, ptr %41, align 4
  %conv = zext i32 %42 to i64
  %43 = load i32, ptr %y, align 4
  %conv26 = zext i32 %43 to i64
  %mul = mul i64 %conv, %conv26
  %44 = load ptr, ptr %xc, align 8
  %45 = load i32, ptr %44, align 4
  %conv27 = zext i32 %45 to i64
  %add28 = add i64 %mul, %conv27
  %46 = load i64, ptr %carry, align 8
  %add29 = add i64 %add28, %46
  store i64 %add29, ptr %z, align 8
  %47 = load i64, ptr %z, align 8
  %shr = lshr i64 %47, 32
  store i64 %shr, ptr %carry, align 8
  %48 = load i64, ptr %z, align 8
  %and = and i64 %48, 4294967295
  %conv30 = trunc i64 %and to i32
  %49 = load ptr, ptr %xc, align 8
  %incdec.ptr31 = getelementptr inbounds i32, ptr %49, i32 1
  store ptr %incdec.ptr31, ptr %xc, align 8
  store i32 %conv30, ptr %49, align 4
  br label %do.cond

do.cond:                                          ; preds = %do.body
  %50 = load ptr, ptr %x, align 8
  %51 = load ptr, ptr %xae, align 8
  %cmp32 = icmp ult ptr %50, %51
  br i1 %cmp32, label %do.body, label %do.end, !llvm.loop !29

do.end:                                           ; preds = %do.cond
  %52 = load i64, ptr %carry, align 8
  %conv34 = trunc i64 %52 to i32
  %53 = load ptr, ptr %xc, align 8
  store i32 %conv34, ptr %53, align 4
  br label %if.end35

if.end35:                                         ; preds = %do.end, %for.body22
  br label %for.inc36

for.inc36:                                        ; preds = %if.end35
  %54 = load ptr, ptr %xc0, align 8
  %incdec.ptr37 = getelementptr inbounds i32, ptr %54, i32 1
  store ptr %incdec.ptr37, ptr %xc0, align 8
  br label %for.cond20, !llvm.loop !30

for.end38:                                        ; preds = %for.cond20
  %55 = load ptr, ptr %c, align 8
  %x39 = getelementptr inbounds %struct.Bigint, ptr %55, i32 0, i32 5
  %arraydecay40 = getelementptr inbounds [1 x i32], ptr %x39, i64 0, i64 0
  store ptr %arraydecay40, ptr %xc0, align 8
  %56 = load ptr, ptr %xc0, align 8
  %57 = load i32, ptr %wc, align 4
  %idx.ext41 = sext i32 %57 to i64
  %add.ptr42 = getelementptr inbounds i32, ptr %56, i64 %idx.ext41
  store ptr %add.ptr42, ptr %xc, align 8
  br label %for.cond43

for.cond43:                                       ; preds = %for.inc49, %for.end38
  %58 = load i32, ptr %wc, align 4
  %cmp44 = icmp sgt i32 %58, 0
  br i1 %cmp44, label %land.rhs, label %land.end

land.rhs:                                         ; preds = %for.cond43
  %59 = load ptr, ptr %xc, align 8
  %incdec.ptr46 = getelementptr inbounds i32, ptr %59, i32 -1
  store ptr %incdec.ptr46, ptr %xc, align 8
  %60 = load i32, ptr %incdec.ptr46, align 4
  %tobool47 = icmp ne i32 %60, 0
  %lnot = xor i1 %tobool47, true
  br label %land.end

land.end:                                         ; preds = %land.rhs, %for.cond43
  %61 = phi i1 [ false, %for.cond43 ], [ %lnot, %land.rhs ]
  br i1 %61, label %for.body48, label %for.end50

for.body48:                                       ; preds = %land.end
  br label %for.inc49

for.inc49:                                        ; preds = %for.body48
  %62 = load i32, ptr %wc, align 4
  %dec = add nsw i32 %62, -1
  store i32 %dec, ptr %wc, align 4
  br label %for.cond43, !llvm.loop !31

for.end50:                                        ; preds = %land.end
  %63 = load i32, ptr %wc, align 4
  %64 = load ptr, ptr %c, align 8
  %wds51 = getelementptr inbounds %struct.Bigint, ptr %64, i32 0, i32 4
  store i32 %63, ptr %wds51, align 4
  %65 = load ptr, ptr %c, align 8
  ret ptr %65
}