; Function Attrs: nofree nounwind uwtable
define internal fastcc ptr @mult(ptr noundef %dalloc, ptr noundef readonly %a, ptr noundef readonly %b) unnamed_addr #5 {
entry:
  %wds = getelementptr inbounds nuw i8, ptr %a, i64 20
  %0 = load i32, ptr %wds, align 4
  %wds1 = getelementptr inbounds nuw i8, ptr %b, i64 20
  %1 = load i32, ptr %wds1, align 4
  %cmp = icmp slt i32 %0, %1
  %spec.select = select i1 %cmp, ptr %a, ptr %b
  %spec.select38 = select i1 %cmp, ptr %b, ptr %a
  %k2 = getelementptr inbounds nuw i8, ptr %spec.select38, i64 8
  %2 = load i32, ptr %k2, align 8
  %wds3 = getelementptr inbounds nuw i8, ptr %spec.select38, i64 20
  %3 = load i32, ptr %wds3, align 4
  %wds4 = getelementptr inbounds nuw i8, ptr %spec.select, i64 20
  %4 = load i32, ptr %wds4, align 4
  %add = add nsw i32 %4, %3
  %maxwds = getelementptr inbounds nuw i8, ptr %spec.select38, i64 12
  %5 = load i32, ptr %maxwds, align 4
  %cmp5 = icmp sgt i32 %add, %5
  %inc = zext i1 %cmp5 to i32
  %k.0 = add nsw i32 %2, %inc
  %cmp.i = icmp slt i32 %k.0, 8
  br i1 %cmp.i, label %land.lhs.true.i, label %if.else.i

land.lhs.true.i:                                  ; preds = %entry
  %freelist.i = getelementptr inbounds nuw i8, ptr %dalloc, i64 16
  %idxprom.i = sext i32 %k.0 to i64
  %arrayidx.i = getelementptr inbounds [8 x ptr], ptr %freelist.i, i64 0, i64 %idxprom.i
  %6 = load ptr, ptr %arrayidx.i, align 8
  %tobool.not.i = icmp eq ptr %6, null
  br i1 %tobool.not.i, label %land.lhs.true9.i, label %if.then.i

if.then.i:                                        ; preds = %land.lhs.true.i
  %7 = load ptr, ptr %6, align 8
  store ptr %7, ptr %arrayidx.i, align 8
  br label %Balloc.exit

if.else.i:                                        ; preds = %entry
  %shl.i = shl nuw i32 1, %k.0
  %sub.i = add nsw i32 %shl.i, -1
  %conv.i = zext nneg i32 %sub.i to i64
  %mul.i = shl nuw nsw i64 %conv.i, 2
  %sub5.i = add nuw nsw i64 %mul.i, 39
  br label %if.else18.i

land.lhs.true9.i:                                 ; preds = %land.lhs.true.i
  %shl22.i = shl nuw nsw i32 1, %k.0
  %sub23.i = add nsw i32 %shl22.i, -1
  %conv24.i = zext nneg i32 %sub23.i to i64
  %mul25.i = shl nuw nsw i64 %conv24.i, 2
  %sub526.i = add nuw nsw i64 %mul25.i, 39
  %div21.i = lshr i64 %sub526.i, 3
  %pmem_next.i = getelementptr inbounds nuw i8, ptr %dalloc, i64 8
  %8 = load ptr, ptr %pmem_next.i, align 8
  %private_mem.i = getelementptr inbounds nuw i8, ptr %dalloc, i64 80
  %sub.ptr.lhs.cast.i = ptrtoint ptr %8 to i64
  %sub.ptr.rhs.cast.i = ptrtoint ptr %private_mem.i to i64
  %sub.ptr.sub.i = sub i64 %sub.ptr.lhs.cast.i, %sub.ptr.rhs.cast.i
  %sub.ptr.div.i = ashr exact i64 %sub.ptr.sub.i, 3
  %add11.i = add nsw i64 %sub.ptr.div.i, %div21.i
  %9 = load i32, ptr %dalloc, align 8
  %conv12.i = sext i32 %9 to i64
  %cmp13.not.i = icmp sgt i64 %add11.i, %conv12.i
  br i1 %cmp13.not.i, label %if.else18.i, label %if.then15.i

if.then15.i:                                      ; preds = %land.lhs.true9.i
  %add.ptr.i = getelementptr inbounds nuw double, ptr %8, i64 %div21.i
  store ptr %add.ptr.i, ptr %pmem_next.i, align 8
  br label %if.end.i

if.else18.i:                                      ; preds = %land.lhs.true9.i, %if.else.i
  %sub531.i = phi i64 [ %sub526.i, %land.lhs.true9.i ], [ %sub5.i, %if.else.i ]
  %shl28.i = phi i32 [ %shl22.i, %land.lhs.true9.i ], [ %shl.i, %if.else.i ]
  %mul20.i = and i64 %sub531.i, 34359738360
  %call.i = tail call noalias ptr @malloc(i64 noundef %mul20.i) #19
  %used_heap.i = getelementptr inbounds nuw i8, ptr %dalloc, i64 4
  store i32 1, ptr %used_heap.i, align 4
  br label %if.end.i

if.end.i:                                         ; preds = %if.else18.i, %if.then15.i
  %shl27.i = phi i32 [ %shl22.i, %if.then15.i ], [ %shl28.i, %if.else18.i ]
  %rv.1.i = phi ptr [ %8, %if.then15.i ], [ %call.i, %if.else18.i ]
  %k21.i = getelementptr inbounds nuw i8, ptr %rv.1.i, i64 8
  store i32 %k.0, ptr %k21.i, align 8
  %maxwds.i = getelementptr inbounds nuw i8, ptr %rv.1.i, i64 12
  store i32 %shl27.i, ptr %maxwds.i, align 4
  br label %Balloc.exit

Balloc.exit:                                      ; preds = %if.then.i, %if.end.i
  %rv.0.i = phi ptr [ %6, %if.then.i ], [ %rv.1.i, %if.end.i ]
  %wds.i = getelementptr inbounds nuw i8, ptr %rv.0.i, i64 20
  store i32 0, ptr %wds.i, align 4
  %sign.i = getelementptr inbounds nuw i8, ptr %rv.0.i, i64 16
  store i32 0, ptr %sign.i, align 8
  %x8.ptr = getelementptr i8, ptr %rv.0.i, i64 24
  %idx.ext = sext i32 %add to i64
  %add.ptr.idx = shl nsw i64 %idx.ext, 2
  %10 = getelementptr i8, ptr %rv.0.i, i64 %add.ptr.idx
  %add.ptr.ptr = getelementptr i8, ptr %10, i64 24
  %cmp939 = icmp sgt i32 %add, 0
  br i1 %cmp939, label %for.body.preheader, label %for.end

for.body.preheader:                               ; preds = %Balloc.exit
  %rv.0.i48 = ptrtoint ptr %rv.0.i to i64
  %11 = add i64 %add.ptr.idx, %rv.0.i48
  %12 = add i64 %11, 24
  %13 = add i64 %rv.0.i48, 28
  %umax = tail call i64 @llvm.umax.i64(i64 %12, i64 %13)
  %14 = add i64 %umax, -25
  %15 = sub i64 %14, %rv.0.i48
  %16 = and i64 %15, -4
  %17 = add i64 %16, 4
  tail call void @llvm.memset.p0.i64(ptr align 4 %x8.ptr, i8 0, i64 %17, i1 false)
  br label %for.end

for.end:                                          ; preds = %for.body.preheader, %Balloc.exit
  %x10 = getelementptr inbounds nuw i8, ptr %spec.select38, i64 24
  %idx.ext12 = sext i32 %3 to i64
  %add.ptr13 = getelementptr inbounds i32, ptr %x10, i64 %idx.ext12
  %idx.ext16 = sext i32 %4 to i64
  %add.ptr17.idx = shl nsw i64 %idx.ext16, 2
  %18 = getelementptr i8, ptr %spec.select, i64 %add.ptr17.idx
  %add.ptr17.ptr = getelementptr i8, ptr %18, i64 24
  %cmp2141 = icmp sgt i32 %4, 0
  br i1 %cmp2141, label %for.body22.preheader, label %for.cond43.preheader

for.body22.preheader:                             ; preds = %for.end
  %x14.ptr = getelementptr inbounds nuw i8, ptr %spec.select, i64 24
  br label %for.body22

for.cond43.preheader:                             ; preds = %for.inc36, %for.end
  br i1 %cmp939, label %land.rhs, label %for.end50

for.body22:                                       ; preds = %for.body22.preheader, %for.inc36
  %xc0.043 = phi ptr [ %incdec.ptr37, %for.inc36 ], [ %x8.ptr, %for.body22.preheader ]
  %xb.042 = phi ptr [ %incdec.ptr23, %for.inc36 ], [ %x14.ptr, %for.body22.preheader ]
  %incdec.ptr23 = getelementptr inbounds nuw i8, ptr %xb.042, i64 4
  %19 = load i32, ptr %xb.042, align 4
  %tobool.not = icmp eq i32 %19, 0
  br i1 %tobool.not, label %for.inc36, label %do.body.preheader

do.body.preheader:                                ; preds = %for.body22
  %conv26 = zext i32 %19 to i64
  br label %do.body

do.body:                                          ; preds = %do.body.preheader, %do.body
  %x.1 = phi ptr [ %incdec.ptr25, %do.body ], [ %x10, %do.body.preheader ]
  %xc.0 = phi ptr [ %incdec.ptr31, %do.body ], [ %xc0.043, %do.body.preheader ]
  %carry.0 = phi i64 [ %shr, %do.body ], [ 0, %do.body.preheader ]
  %incdec.ptr25 = getelementptr inbounds nuw i8, ptr %x.1, i64 4
  %20 = load i32, ptr %x.1, align 4
  %conv = zext i32 %20 to i64
  %mul = mul nuw i64 %conv, %conv26
  %21 = load i32, ptr %xc.0, align 4
  %conv27 = zext i32 %21 to i64
  %add28 = add nuw nsw i64 %carry.0, %conv27
  %add29 = add nuw i64 %add28, %mul
  %shr = lshr i64 %add29, 32
  %conv30 = trunc i64 %add29 to i32
  %incdec.ptr31 = getelementptr inbounds nuw i8, ptr %xc.0, i64 4
  store i32 %conv30, ptr %xc.0, align 4
  %cmp32 = icmp ult ptr %incdec.ptr25, %add.ptr13
  br i1 %cmp32, label %do.body, label %do.end, !llvm.loop !32

do.end:                                           ; preds = %do.body
  %conv34 = trunc nuw i64 %shr to i32
  store i32 %conv34, ptr %incdec.ptr31, align 4
  br label %for.inc36

for.inc36:                                        ; preds = %for.body22, %do.end
  %incdec.ptr37 = getelementptr inbounds nuw i8, ptr %xc0.043, i64 4
  %cmp21 = icmp ult ptr %incdec.ptr23, %add.ptr17.ptr
  br i1 %cmp21, label %for.body22, label %for.cond43.preheader, !llvm.loop !33

land.rhs:                                         ; preds = %for.cond43.preheader, %for.inc49
  %xc.146 = phi ptr [ %incdec.ptr46, %for.inc49 ], [ %add.ptr.ptr, %for.cond43.preheader ]
  %wc.045 = phi i32 [ %dec, %for.inc49 ], [ %add, %for.cond43.preheader ]
  %incdec.ptr46 = getelementptr inbounds i8, ptr %xc.146, i64 -4
  %22 = load i32, ptr %incdec.ptr46, align 4
  %tobool47.not = icmp eq i32 %22, 0
  br i1 %tobool47.not, label %for.inc49, label %for.end50

for.inc49:                                        ; preds = %land.rhs
  %dec = add nsw i32 %wc.045, -1
  %cmp44 = icmp sgt i32 %wc.045, 1
  br i1 %cmp44, label %land.rhs, label %for.end50, !llvm.loop !34

for.end50:                                        ; preds = %land.rhs, %for.inc49, %for.cond43.preheader
  %wc.0.lcssa = phi i32 [ %add, %for.cond43.preheader ], [ 0, %for.inc49 ], [ %wc.045, %land.rhs ]
  store i32 %wc.0.lcssa, ptr %wds.i, align 4
  ret ptr %rv.0.i
}